; Function Attrs: nounwind sspstrong uwtable
define internal fastcc void @class_descendants_recursive(i64 noundef %0, i64 noundef %1) unnamed_addr #0 {
  %3 = inttoptr i64 %1 to ptr
  %4 = inttoptr i64 %0 to ptr
  %5 = load i64, ptr %4, align 8, !tbaa !35
  %6 = and i64 %5, 31
  %7 = icmp eq i64 %6, 2
  br i1 %7, label %8, label %42

8:                                                ; preds = %2
  %9 = icmp ne i64 %0, 0
  %10 = and i64 %0, 7
  %11 = icmp eq i64 %10, 0
  %.not27 = and i1 %9, %11
  %12 = and i64 %5, 8192
  %13 = icmp ne i64 %12, 0
  %or.cond24 = and i1 %.not27, %13
  br i1 %or.cond24, label %42, label %RCLASS_SINGLETON_P.exit.thread

RCLASS_SINGLETON_P.exit.thread:                   ; preds = %8
  %14 = load i64, ptr %3, align 8, !tbaa !82
  %.not = icmp eq i64 %14, 0
  br i1 %.not, label %26, label %15

15:                                               ; preds = %RCLASS_SINGLETON_P.exit.thread
  %16 = getelementptr inbounds nuw i8, ptr %3, i64 8
  %17 = load i64, ptr %16, align 8, !tbaa !81
  %18 = getelementptr inbounds nuw i8, ptr %3, i64 16
  %19 = load i64, ptr %18, align 8, !tbaa !78
  %20 = icmp slt i64 %17, %19
  br i1 %20, label %21, label %26

21:                                               ; preds = %15
  %22 = tail call i32 @rb_objspace_garbage_object_p(i64 noundef %0) #19
  %.not14 = icmp eq i32 %22, 0
  br i1 %.not14, label %23, label %26

23:                                               ; preds = %21
  %24 = load i64, ptr %3, align 8, !tbaa !82
  %25 = tail call i64 @rb_ary_push(i64 noundef %24, i64 noundef %0) #19
  br label %26

26:                                               ; preds = %23, %21, %15, %RCLASS_SINGLETON_P.exit.thread
  %27 = getelementptr inbounds nuw i8, ptr %3, i64 8
  %28 = load i64, ptr %27, align 8, !tbaa !81
  %29 = add i64 %28, 1
  store i64 %29, ptr %27, align 8, !tbaa !81
  %30 = getelementptr inbounds nuw i8, ptr %3, i64 24
  %31 = load i8, ptr %30, align 8, !tbaa !80, !range !105, !noundef !106
  %32 = trunc nuw i8 %31 to i1
  br i1 %32, label %rb_class_foreach_subclass.exit, label %33

33:                                               ; preds = %26
  %34 = getelementptr inbounds nuw i8, ptr %4, i64 88
  %35 = load ptr, ptr %34, align 8, !tbaa !14
  %.not.i = icmp eq ptr %35, null
  br i1 %.not.i, label %rb_class_foreach_subclass.exit, label %36

36:                                               ; preds = %33
  %37 = getelementptr inbounds nuw i8, ptr %35, i64 8
  %38 = load ptr, ptr %37, align 8, !tbaa !23
  %.not1011.i = icmp eq ptr %38, null
  br i1 %.not1011.i, label %rb_class_foreach_subclass.exit, label %.lr.ph.i

.lr.ph.i:                                         ; preds = %36, %.lr.ph.i
  %.112.i = phi ptr [ %41, %.lr.ph.i ], [ %38, %36 ]
  %39 = load i64, ptr %.112.i, align 8, !tbaa !7
  %40 = getelementptr inbounds nuw i8, ptr %.112.i, i64 8
  %41 = load ptr, ptr %40, align 8, !tbaa !23
  tail call fastcc void @class_descendants_recursive(i64 noundef %39, i64 noundef %1) #19
  %.not10.i = icmp eq ptr %41, null
  br i1 %.not10.i, label %rb_class_foreach_subclass.exit, label %.lr.ph.i, !llvm.loop !27

42:                                               ; preds = %8, %2
  %43 = getelementptr inbounds nuw i8, ptr %4, i64 88
  %44 = load ptr, ptr %43, align 8, !tbaa !14
  %.not.i15 = icmp eq ptr %44, null
  br i1 %.not.i15, label %rb_class_foreach_subclass.exit, label %45

45:                                               ; preds = %42
  %46 = getelementptr inbounds nuw i8, ptr %44, i64 8
  %47 = load ptr, ptr %46, align 8, !tbaa !23
  %.not1011.i16 = icmp eq ptr %47, null
  br i1 %.not1011.i16, label %rb_class_foreach_subclass.exit, label %.lr.ph.i17

.lr.ph.i17:                                       ; preds = %45, %.lr.ph.i17
  %.112.i18 = phi ptr [ %50, %.lr.ph.i17 ], [ %47, %45 ]
  %48 = load i64, ptr %.112.i18, align 8, !tbaa !7
  %49 = getelementptr inbounds nuw i8, ptr %.112.i18, i64 8
  %50 = load ptr, ptr %49, align 8, !tbaa !23
  tail call fastcc void @class_descendants_recursive(i64 noundef %48, i64 noundef %1) #19
  %.not10.i19 = icmp eq ptr %50, null
  br i1 %.not10.i19, label %rb_class_foreach_subclass.exit, label %.lr.ph.i17, !llvm.loop !27

rb_class_foreach_subclass.exit:                   ; preds = %.lr.ph.i, %.lr.ph.i17, %45, %42, %36, %33, %26
  ret void
}